; Function Attrs: mustprogress uwtable
define void @_ZN5Ipopt14IndexSchurData12SetData_ListERKSt6vectorIiSaIiEEd(ptr noundef nonnull align 8 dereferenceable(72) %0, ptr noundef nonnull align 8 dereferenceable(24) %1, double noundef %2) unnamed_addr #1 align 2 personality ptr @__gxx_personality_v0 {
  %4 = alloca i32, align 4
  call void @llvm.lifetime.start.p0(i64 4, ptr nonnull %4) #20
  %5 = fcmp ogt double %2, 0.000000e+00
  %. = select i1 %5, i32 1, i32 -1
  store i32 %., ptr %4, align 4, !tbaa !24
  %6 = getelementptr inbounds nuw i8, ptr %0, i64 48
  %7 = getelementptr inbounds nuw i8, ptr %1, i64 8
  %8 = load ptr, ptr %7, align 8, !tbaa !14
  %9 = load ptr, ptr %1, align 8, !tbaa !18
  %10 = ptrtoint ptr %8 to i64
  %11 = ptrtoint ptr %9 to i64
  %12 = sub i64 %10, %11
  %13 = ashr exact i64 %12, 2
  %14 = getelementptr inbounds nuw i8, ptr %0, i64 56
  %15 = load ptr, ptr %14, align 8, !tbaa !14
  %16 = load ptr, ptr %6, align 8, !tbaa !18
  %17 = ptrtoint ptr %15 to i64
  %18 = ptrtoint ptr %16 to i64
  %19 = sub i64 %17, %18
  %20 = ashr exact i64 %19, 2
  %21 = icmp ugt i64 %13, %20
  br i1 %21, label %22, label %24

22:                                               ; preds = %3
  %23 = sub nuw nsw i64 %13, %20
  call void @_ZNSt6vectorIiSaIiEE14_M_fill_insertEN9__gnu_cxx17__normal_iteratorIPiS1_EEmRKi(ptr noundef nonnull align 8 dereferenceable(24) %6, ptr %15, i64 noundef %23, ptr noundef nonnull align 4 dereferenceable(4) %4)
  br label %_ZNSt6vectorIiSaIiEE6resizeEmRKi.exit

24:                                               ; preds = %3
  %25 = icmp ult i64 %13, %20
  br i1 %25, label %26, label %_ZNSt6vectorIiSaIiEE6resizeEmRKi.exit

26:                                               ; preds = %24
  %27 = getelementptr inbounds nuw i8, ptr %16, i64 %12
  %.not.i.i = icmp eq ptr %15, %27
  br i1 %.not.i.i, label %_ZNSt6vectorIiSaIiEE6resizeEmRKi.exit, label %28

28:                                               ; preds = %26
  store ptr %27, ptr %14, align 8, !tbaa !14
  br label %_ZNSt6vectorIiSaIiEE6resizeEmRKi.exit

_ZNSt6vectorIiSaIiEE6resizeEmRKi.exit:            ; preds = %22, %24, %26, %28
  %29 = getelementptr inbounds nuw i8, ptr %0, i64 24
  %30 = call noundef nonnull align 8 dereferenceable(24) ptr @_ZNSt6vectorIiSaIiEEaSERKS1_(ptr noundef nonnull align 8 dereferenceable(24) %29, ptr noundef nonnull align 8 dereferenceable(24) %1)
  %31 = load ptr, ptr %0, align 8, !tbaa !12
  %32 = getelementptr inbounds nuw i8, ptr %31, i64 120
  %33 = load ptr, ptr %32, align 8
  call void %33(ptr noundef nonnull align 8 dereferenceable(20) %0)
  call void @llvm.lifetime.end.p0(i64 4, ptr nonnull %4) #20
  ret void
}